target datalayout = "e-m:e-p270:32:32-p271:32:32-p272:64:64-i64:64-i128:128-f80:128-n8:16:32:64-S128"
target triple = "x86_64-pc-linux-gnu"

%struct.poly_st = type { [256 x i32] }

; Function Attrs: inlinehint nounwind uwtable
define internal i32 @value_barrier_32(i32 noundef %0) #3 {
  %2 = alloca i32, align 4
  %3 = alloca i32, align 4
  store i32 %0, ptr %2, align 4, !tbaa !8
  call void @llvm.lifetime.start.p0(i64 4, ptr %3) #7
  %4 = load i32, ptr %2, align 4, !tbaa !8
  %5 = call i32 asm "", "=r,0,~{dirflag},~{fpsr},~{flags}"(i32 %4) #9, !srcloc !99
  store i32 %5, ptr %3, align 4, !tbaa !8
  %6 = load i32, ptr %3, align 4, !tbaa !8
  call void @llvm.lifetime.end.p0(i64 4, ptr %3) #7
  ret i32 %6
}

; Function Attrs: inlinehint nounwind uwtable
define internal i32 @constant_time_msb_32(i32 noundef %0) #3 {
  %2 = alloca i32, align 4
  store i32 %0, ptr %2, align 4, !tbaa !8
  %3 = load i32, ptr %2, align 4, !tbaa !8
  %4 = lshr i32 %3, 31
  %5 = sub i32 0, %4
  ret i32 %5
}

; Function Attrs: inlinehint nounwind uwtable
define internal i32 @constant_time_select_32(i32 noundef %0, i32 noundef %1, i32 noundef %2) #3 {
  %4 = alloca i32, align 4
  %5 = alloca i32, align 4
  %6 = alloca i32, align 4
  store i32 %0, ptr %4, align 4, !tbaa !8
  store i32 %1, ptr %5, align 4, !tbaa !8
  store i32 %2, ptr %6, align 4, !tbaa !8
  %7 = load i32, ptr %4, align 4, !tbaa !8
  %8 = call i32 @value_barrier_32(i32 noundef %7)
  %9 = load i32, ptr %5, align 4, !tbaa !8
  %10 = and i32 %8, %9
  %11 = load i32, ptr %4, align 4, !tbaa !8
  %12 = xor i32 %11, -1
  %13 = call i32 @value_barrier_32(i32 noundef %12)
  %14 = load i32, ptr %6, align 4, !tbaa !8
  %15 = and i32 %13, %14
  %16 = or i32 %10, %15
  ret i32 %16
}

; Function Attrs: inlinehint nounwind uwtable
define internal i32 @constant_time_lt_32(i32 noundef %0, i32 noundef %1) #3 {
  %3 = alloca i32, align 4
  %4 = alloca i32, align 4
  store i32 %0, ptr %3, align 4, !tbaa !8
  store i32 %1, ptr %4, align 4, !tbaa !8
  %5 = load i32, ptr %3, align 4, !tbaa !8
  %6 = load i32, ptr %3, align 4, !tbaa !8
  %7 = load i32, ptr %4, align 4, !tbaa !8
  %8 = xor i32 %6, %7
  %9 = load i32, ptr %3, align 4, !tbaa !8
  %10 = load i32, ptr %4, align 4, !tbaa !8
  %11 = sub i32 %9, %10
  %12 = load i32, ptr %4, align 4, !tbaa !8
  %13 = xor i32 %11, %12
  %14 = or i32 %8, %13
  %15 = xor i32 %5, %14
  %16 = call i32 @constant_time_msb_32(i32 noundef %15)
  ret i32 %16
}

; Function Attrs: inlinehint nounwind uwtable
define internal zeroext i16 @__uint16_identity(i16 noundef zeroext %0) #3 {
  %2 = alloca i16, align 2
  store i16 %0, ptr %2, align 2, !tbaa !87
  %3 = load i16, ptr %2, align 2, !tbaa !87
  ret i16 %3
}

; Function Attrs: inlinehint nounwind uwtable
define internal i32 @reduce_once(i32 noundef %0) #3 {
  %2 = alloca i32, align 4
  store i32 %0, ptr %2, align 4, !tbaa !8
  %3 = load i32, ptr %2, align 4, !tbaa !8
  %4 = call i32 @constant_time_lt_32(i32 noundef %3, i32 noundef 8380417)
  %5 = load i32, ptr %2, align 4, !tbaa !8
  %6 = load i32, ptr %2, align 4, !tbaa !8
  %7 = sub i32 %6, 8380417
  %8 = call i32 @constant_time_select_32(i32 noundef %4, i32 noundef %5, i32 noundef %7)
  ret i32 %8
}

; Function Attrs: inlinehint nounwind uwtable
define internal ptr @OPENSSL_store_u16_le(ptr noundef %0, i16 noundef zeroext %1) #3 {
  %3 = alloca ptr, align 8
  %4 = alloca i16, align 2
  %5 = alloca i16, align 2
  store ptr %0, ptr %3, align 8, !tbaa !25
  store i16 %1, ptr %4, align 2, !tbaa !87
  call void @llvm.lifetime.start.p0(i64 2, ptr %5) #7
  %6 = load i16, ptr %4, align 2, !tbaa !87
  %7 = call zeroext i16 @__uint16_identity(i16 noundef zeroext %6)
  store i16 %7, ptr %5, align 2, !tbaa !87
  %8 = load ptr, ptr %3, align 8, !tbaa !25
  call void @llvm.memcpy.p0.p0.i64(ptr align 1 %8, ptr align 2 %5, i64 2, i1 false)
  %9 = load ptr, ptr %3, align 8, !tbaa !25
  %10 = getelementptr inbounds i8, ptr %9, i64 2
  call void @llvm.lifetime.end.p0(i64 2, ptr %5) #7
  ret ptr %10
}

; Function Attrs: inlinehint nounwind uwtable
define internal i32 @mod_sub(i32 noundef %0, i32 noundef %1) #3 {
  %3 = alloca i32, align 4
  %4 = alloca i32, align 4
  store i32 %0, ptr %3, align 4, !tbaa !8
  store i32 %1, ptr %4, align 4, !tbaa !8
  %5 = load i32, ptr %3, align 4, !tbaa !8
  %6 = add i32 8380417, %5
  %7 = load i32, ptr %4, align 4, !tbaa !8
  %8 = sub i32 %6, %7
  %9 = call i32 @reduce_once(i32 noundef %8)
  ret i32 %9
}

; Function Attrs: nounwind uwtable
define internal i32 @poly_encode_signed_2(ptr noundef %0, ptr noundef %1) #0 {
  %3 = alloca i32, align 4
  %4 = alloca ptr, align 8
  %5 = alloca ptr, align 8
  %6 = alloca ptr, align 8
  %7 = alloca ptr, align 8
  %8 = alloca ptr, align 8
  %9 = alloca i32, align 4
  %10 = alloca i32, align 4
  store ptr %0, ptr %4, align 8, !tbaa !20
  store ptr %1, ptr %5, align 8, !tbaa !29
  call void @llvm.lifetime.start.p0(i64 8, ptr %6) #7
  call void @llvm.lifetime.start.p0(i64 8, ptr %7) #7
  %11 = load ptr, ptr %4, align 8, !tbaa !20
  %12 = getelementptr inbounds nuw %struct.poly_st, ptr %11, i32 0, i32 0
  %13 = getelementptr inbounds [256 x i32], ptr %12, i64 0, i64 0
  store ptr %13, ptr %7, align 8, !tbaa !31
  call void @llvm.lifetime.start.p0(i64 8, ptr %8) #7
  %14 = load ptr, ptr %7, align 8, !tbaa !31
  %15 = getelementptr inbounds i32, ptr %14, i64 256
  store ptr %15, ptr %8, align 8, !tbaa !31
  %16 = load ptr, ptr %5, align 8, !tbaa !29
  %17 = call i32 @WPACKET_allocate_bytes(ptr noundef %16, i64 noundef 96, ptr noundef %6)
  %18 = icmp ne i32 %17, 0
  br i1 %18, label %20, label %19

19:                                               ; preds = %2
  store i32 0, ptr %3, align 4
  store i32 1, ptr %9, align 4
  br label %89

20:                                               ; preds = %2
  br label %21

21:                                               ; preds = %84, %20
  call void @llvm.lifetime.start.p0(i64 4, ptr %10) #7
  %22 = load ptr, ptr %7, align 8, !tbaa !31
  %23 = getelementptr inbounds nuw i32, ptr %22, i32 1
  store ptr %23, ptr %7, align 8, !tbaa !31
  %24 = load i32, ptr %22, align 4, !tbaa !8
  %25 = call i32 @mod_sub(i32 noundef 2, i32 noundef %24)
  store i32 %25, ptr %10, align 4, !tbaa !8
  %26 = load ptr, ptr %7, align 8, !tbaa !31
  %27 = getelementptr inbounds nuw i32, ptr %26, i32 1
  store ptr %27, ptr %7, align 8, !tbaa !31
  %28 = load i32, ptr %26, align 4, !tbaa !8
  %29 = call i32 @mod_sub(i32 noundef 2, i32 noundef %28)
  %30 = shl i32 %29, 3
  %31 = load i32, ptr %10, align 4, !tbaa !8
  %32 = or i32 %31, %30
  store i32 %32, ptr %10, align 4, !tbaa !8
  %33 = load ptr, ptr %7, align 8, !tbaa !31
  %34 = getelementptr inbounds nuw i32, ptr %33, i32 1
  store ptr %34, ptr %7, align 8, !tbaa !31
  %35 = load i32, ptr %33, align 4, !tbaa !8
  %36 = call i32 @mod_sub(i32 noundef 2, i32 noundef %35)
  %37 = shl i32 %36, 6
  %38 = load i32, ptr %10, align 4, !tbaa !8
  %39 = or i32 %38, %37
  store i32 %39, ptr %10, align 4, !tbaa !8
  %40 = load ptr, ptr %7, align 8, !tbaa !31
  %41 = getelementptr inbounds nuw i32, ptr %40, i32 1
  store ptr %41, ptr %7, align 8, !tbaa !31
  %42 = load i32, ptr %40, align 4, !tbaa !8
  %43 = call i32 @mod_sub(i32 noundef 2, i32 noundef %42)
  %44 = shl i32 %43, 9
  %45 = load i32, ptr %10, align 4, !tbaa !8
  %46 = or i32 %45, %44
  store i32 %46, ptr %10, align 4, !tbaa !8
  %47 = load ptr, ptr %7, align 8, !tbaa !31
  %48 = getelementptr inbounds nuw i32, ptr %47, i32 1
  store ptr %48, ptr %7, align 8, !tbaa !31
  %49 = load i32, ptr %47, align 4, !tbaa !8
  %50 = call i32 @mod_sub(i32 noundef 2, i32 noundef %49)
  %51 = shl i32 %50, 12
  %52 = load i32, ptr %10, align 4, !tbaa !8
  %53 = or i32 %52, %51
  store i32 %53, ptr %10, align 4, !tbaa !8
  %54 = load ptr, ptr %7, align 8, !tbaa !31
  %55 = getelementptr inbounds nuw i32, ptr %54, i32 1
  store ptr %55, ptr %7, align 8, !tbaa !31
  %56 = load i32, ptr %54, align 4, !tbaa !8
  %57 = call i32 @mod_sub(i32 noundef 2, i32 noundef %56)
  %58 = shl i32 %57, 15
  %59 = load i32, ptr %10, align 4, !tbaa !8
  %60 = or i32 %59, %58
  store i32 %60, ptr %10, align 4, !tbaa !8
  %61 = load ptr, ptr %7, align 8, !tbaa !31
  %62 = getelementptr inbounds nuw i32, ptr %61, i32 1
  store ptr %62, ptr %7, align 8, !tbaa !31
  %63 = load i32, ptr %61, align 4, !tbaa !8
  %64 = call i32 @mod_sub(i32 noundef 2, i32 noundef %63)
  %65 = shl i32 %64, 18
  %66 = load i32, ptr %10, align 4, !tbaa !8
  %67 = or i32 %66, %65
  store i32 %67, ptr %10, align 4, !tbaa !8
  %68 = load ptr, ptr %7, align 8, !tbaa !31
  %69 = getelementptr inbounds nuw i32, ptr %68, i32 1
  store ptr %69, ptr %7, align 8, !tbaa !31
  %70 = load i32, ptr %68, align 4, !tbaa !8
  %71 = call i32 @mod_sub(i32 noundef 2, i32 noundef %70)
  %72 = shl i32 %71, 21
  %73 = load i32, ptr %10, align 4, !tbaa !8
  %74 = or i32 %73, %72
  store i32 %74, ptr %10, align 4, !tbaa !8
  %75 = load ptr, ptr %6, align 8, !tbaa !25
  %76 = load i32, ptr %10, align 4, !tbaa !8
  %77 = trunc i32 %76 to i16
  %78 = call ptr @OPENSSL_store_u16_le(ptr noundef %75, i16 noundef zeroext %77)
  store ptr %78, ptr %6, align 8, !tbaa !25
  %79 = load i32, ptr %10, align 4, !tbaa !8
  %80 = lshr i32 %79, 16
  %81 = trunc i32 %80 to i8
  %82 = load ptr, ptr %6, align 8, !tbaa !25
  %83 = getelementptr inbounds nuw i8, ptr %82, i32 1
  store ptr %83, ptr %6, align 8, !tbaa !25
  store i8 %81, ptr %82, align 1, !tbaa !33
  call void @llvm.lifetime.end.p0(i64 4, ptr %10) #7
  br label %84

84:                                               ; preds = %21
  %85 = load ptr, ptr %7, align 8, !tbaa !31
  %86 = load ptr, ptr %8, align 8, !tbaa !31
  %87 = icmp ult ptr %85, %86
  br i1 %87, label %21, label %88, !llvm.loop !58

88:                                               ; preds = %84
  store i32 1, ptr %3, align 4
  store i32 1, ptr %9, align 4
  br label %89

89:                                               ; preds = %88, %19
  call void @llvm.lifetime.end.p0(i64 8, ptr %8) #7
  call void @llvm.lifetime.end.p0(i64 8, ptr %7) #7
  call void @llvm.lifetime.end.p0(i64 8, ptr %6) #7
  %90 = load i32, ptr %3, align 4
  ret i32 %90
}