; Function Attrs: nounwind uwtable
define internal range(i32 0, 2) i32 @poly_encode_signed_2(ptr noundef readonly captures(none) %0, ptr noundef %1) unnamed_addr #0 {
  %3 = alloca ptr, align 8
  call void @llvm.lifetime.start.p0(i64 8, ptr nonnull %3) #9
  %4 = call i32 @WPACKET_allocate_bytes(ptr noundef %1, i64 noundef 96, ptr noundef nonnull %3) #9
  %.not = icmp eq i32 %4, 0
  br i1 %.not, label %.loopexit, label %.preheader

.preheader:                                       ; preds = %2, %.preheader
  %.022.idx = phi i64 [ %.022.add, %.preheader ], [ 0, %2 ]
  %.022.ptr = getelementptr inbounds nuw i8, ptr %0, i64 %.022.idx
  %5 = getelementptr inbounds nuw i8, ptr %.022.ptr, i64 4
  %6 = load i32, ptr %.022.ptr, align 4, !tbaa !21
  %7 = sub i32 8380419, %6
  %8 = sub i32 2, %6
  %9 = add i32 %6, -8380420
  %10 = and i32 %8, %9
  %.neg.i.i.i.i = ashr i32 %10, 31
  %11 = call i32 asm "", "=r,0,~{dirflag},~{fpsr},~{flags}"(i32 range(i32 -1, 1) %.neg.i.i.i.i) #10, !srcloc !42
  %12 = and i32 %11, %7
  %13 = xor i32 %.neg.i.i.i.i, -1
  %14 = call i32 asm "", "=r,0,~{dirflag},~{fpsr},~{flags}"(i32 range(i32 -1, 2) %13) #10, !srcloc !42
  %15 = and i32 %14, %8
  %16 = or i32 %15, %12
  %17 = getelementptr inbounds nuw i8, ptr %.022.ptr, i64 8
  %18 = load i32, ptr %5, align 4, !tbaa !21
  %19 = sub i32 8380419, %18
  %20 = sub i32 2, %18
  %21 = add i32 %18, -8380420
  %22 = and i32 %20, %21
  %.neg.i.i.i.i23 = ashr i32 %22, 31
  %23 = call i32 asm "", "=r,0,~{dirflag},~{fpsr},~{flags}"(i32 range(i32 -1, 1) %.neg.i.i.i.i23) #10, !srcloc !42
  %24 = and i32 %23, %19
  %25 = xor i32 %.neg.i.i.i.i23, -1
  %26 = call i32 asm "", "=r,0,~{dirflag},~{fpsr},~{flags}"(i32 range(i32 -1, 2) %25) #10, !srcloc !42
  %27 = and i32 %26, %20
  %28 = or i32 %27, %24
  %29 = shl i32 %28, 3
  %30 = or i32 %16, %29
  %31 = getelementptr inbounds nuw i8, ptr %.022.ptr, i64 12
  %32 = load i32, ptr %17, align 4, !tbaa !21
  %33 = sub i32 8380419, %32
  %34 = sub i32 2, %32
  %35 = add i32 %32, -8380420
  %36 = and i32 %34, %35
  %.neg.i.i.i.i24 = ashr i32 %36, 31
  %37 = call i32 asm "", "=r,0,~{dirflag},~{fpsr},~{flags}"(i32 range(i32 -1, 1) %.neg.i.i.i.i24) #10, !srcloc !42
  %38 = and i32 %37, %33
  %39 = xor i32 %.neg.i.i.i.i24, -1
  %40 = call i32 asm "", "=r,0,~{dirflag},~{fpsr},~{flags}"(i32 range(i32 -1, 2) %39) #10, !srcloc !42
  %41 = and i32 %40, %34
  %42 = or i32 %41, %38
  %43 = shl i32 %42, 6
  %44 = or i32 %30, %43
  %45 = getelementptr inbounds nuw i8, ptr %.022.ptr, i64 16
  %46 = load i32, ptr %31, align 4, !tbaa !21
  %47 = sub i32 8380419, %46
  %48 = sub i32 2, %46
  %49 = add i32 %46, -8380420
  %50 = and i32 %48, %49
  %.neg.i.i.i.i25 = ashr i32 %50, 31
  %51 = call i32 asm "", "=r,0,~{dirflag},~{fpsr},~{flags}"(i32 range(i32 -1, 1) %.neg.i.i.i.i25) #10, !srcloc !42
  %52 = and i32 %51, %47
  %53 = xor i32 %.neg.i.i.i.i25, -1
  %54 = call i32 asm "", "=r,0,~{dirflag},~{fpsr},~{flags}"(i32 range(i32 -1, 2) %53) #10, !srcloc !42
  %55 = and i32 %54, %48
  %56 = or i32 %55, %52
  %57 = shl i32 %56, 9
  %58 = or i32 %44, %57
  %59 = getelementptr inbounds nuw i8, ptr %.022.ptr, i64 20
  %60 = load i32, ptr %45, align 4, !tbaa !21
  %61 = sub i32 1040387, %60
  %62 = sub i32 2, %60
  %63 = add i32 %60, -8380420
  %64 = and i32 %62, %63
  %.neg.i.i.i.i26 = ashr i32 %64, 31
  %65 = call i32 asm "", "=r,0,~{dirflag},~{fpsr},~{flags}"(i32 range(i32 -1, 1) %.neg.i.i.i.i26) #10, !srcloc !42
  %66 = and i32 %65, %61
  %67 = xor i32 %.neg.i.i.i.i26, -1
  %68 = call i32 asm "", "=r,0,~{dirflag},~{fpsr},~{flags}"(i32 range(i32 -1, 2) %67) #10, !srcloc !42
  %69 = and i32 %68, %62
  %70 = or i32 %69, %66
  %71 = shl i32 %70, 12
  %72 = or i32 %58, %71
  %73 = getelementptr inbounds nuw i8, ptr %.022.ptr, i64 24
  %74 = load i32, ptr %59, align 4, !tbaa !21
  %75 = sub i32 122883, %74
  %76 = sub i32 2, %74
  %77 = add i32 %74, -8380420
  %78 = and i32 %76, %77
  %.neg.i.i.i.i27 = ashr i32 %78, 31
  %79 = call i32 asm "", "=r,0,~{dirflag},~{fpsr},~{flags}"(i32 range(i32 -1, 1) %.neg.i.i.i.i27) #10, !srcloc !42
  %80 = and i32 %79, %75
  %81 = xor i32 %.neg.i.i.i.i27, -1
  %82 = call i32 asm "", "=r,0,~{dirflag},~{fpsr},~{flags}"(i32 range(i32 -1, 2) %81) #10, !srcloc !42
  %83 = and i32 %82, %76
  %84 = or i32 %83, %80
  %85 = shl i32 %84, 15
  %86 = or i32 %72, %85
  %87 = getelementptr inbounds nuw i8, ptr %.022.ptr, i64 28
  %88 = load i32, ptr %73, align 4, !tbaa !21
  %89 = sub i32 8195, %88
  %90 = sub i32 2, %88
  %91 = add i32 %88, -8380420
  %92 = and i32 %90, %91
  %.neg.i.i.i.i28 = ashr i32 %92, 31
  %93 = call i32 asm "", "=r,0,~{dirflag},~{fpsr},~{flags}"(i32 range(i32 -1, 1) %.neg.i.i.i.i28) #10, !srcloc !42
  %94 = and i32 %93, %89
  %95 = xor i32 %.neg.i.i.i.i28, -1
  %96 = call i32 asm "", "=r,0,~{dirflag},~{fpsr},~{flags}"(i32 range(i32 -1, 2) %95) #10, !srcloc !42
  %97 = and i32 %96, %90
  %98 = or i32 %97, %94
  %99 = shl i32 %98, 18
  %.022.add = add nuw nsw i64 %.022.idx, 32
  %100 = load i32, ptr %87, align 4, !tbaa !21
  %101 = sub i32 3, %100
  %102 = sub i32 2, %100
  %103 = add i32 %100, -8380420
  %104 = and i32 %102, %103
  %.neg.i.i.i.i29 = ashr i32 %104, 31
  %105 = call i32 asm "", "=r,0,~{dirflag},~{fpsr},~{flags}"(i32 range(i32 -1, 1) %.neg.i.i.i.i29) #10, !srcloc !42
  %106 = and i32 %105, %101
  %107 = xor i32 %.neg.i.i.i.i29, -1
  %108 = call i32 asm "", "=r,0,~{dirflag},~{fpsr},~{flags}"(i32 range(i32 -1, 2) %107) #10, !srcloc !42
  %109 = and i32 %108, %102
  %110 = or i32 %109, %106
  %111 = shl i32 %110, 21
  %112 = or i32 %99, %111
  %113 = or i32 %112, %86
  %114 = load ptr, ptr %3, align 8, !tbaa !22
  %115 = trunc i32 %86 to i16
  store i16 %115, ptr %114, align 1
  %116 = getelementptr inbounds nuw i8, ptr %114, i64 2
  %117 = lshr i32 %113, 16
  %118 = trunc i32 %117 to i8
  %119 = getelementptr inbounds nuw i8, ptr %114, i64 3
  store ptr %119, ptr %3, align 8, !tbaa !22
  store i8 %118, ptr %116, align 1, !tbaa !23
  %120 = icmp samesign ult i64 %.022.idx, 992
  br i1 %120, label %.preheader, label %.loopexit, !llvm.loop !46

.loopexit:                                        ; preds = %.preheader, %2
  %.0 = phi i32 [ 0, %2 ], [ 1, %.preheader ]
  call void @llvm.lifetime.end.p0(i64 8, ptr nonnull %3) #9
  ret i32 %.0
}